; Function Attrs: mustprogress uwtable
define noundef i32 @_ZN6LibRaw20libraw_openfile_tailEP26LibRaw_abstract_datastream(ptr noundef nonnull align 8 dereferenceable(767680) %0, ptr noundef %1) local_unnamed_addr #0 align 2 {
  %3 = load ptr, ptr %1, align 8, !tbaa !6
  %4 = getelementptr inbounds nuw i8, ptr %3, i64 16
  %5 = load ptr, ptr %4, align 8
  %6 = tail call noundef i32 %5(ptr noundef nonnull align 8 dereferenceable(8) %1)
  %.not = icmp eq i32 %6, 0
  br i1 %.not, label %7, label %11

7:                                                ; preds = %2
  %8 = load ptr, ptr %1, align 8, !tbaa !6
  %9 = getelementptr inbounds nuw i8, ptr %8, i64 8
  %10 = load ptr, ptr %9, align 8
  tail call void %10(ptr noundef nonnull align 8 dereferenceable(8) %1) #17
  br label %22

11:                                               ; preds = %2
  %12 = getelementptr inbounds nuw i8, ptr %0, i64 381432
  store i32 0, ptr %12, align 8, !tbaa !9
  %13 = load ptr, ptr %0, align 8, !tbaa !6
  %14 = load ptr, ptr %13, align 8
  %15 = tail call noundef i32 %14(ptr noundef nonnull align 8 dereferenceable(767680) %0, ptr noundef nonnull %1)
  %16 = icmp eq i32 %15, 0
  br i1 %16, label %21, label %17

17:                                               ; preds = %11
  %18 = load ptr, ptr %1, align 8, !tbaa !6
  %19 = getelementptr inbounds nuw i8, ptr %18, i64 8
  %20 = load ptr, ptr %19, align 8
  tail call void %20(ptr noundef nonnull align 8 dereferenceable(8) %1) #17
  br label %21

21:                                               ; preds = %11, %17
  %storemerge = phi i32 [ 0, %17 ], [ 1, %11 ]
  store i32 %storemerge, ptr %12, align 8, !tbaa !9
  br label %22

22:                                               ; preds = %21, %7
  %.0 = phi i32 [ %15, %21 ], [ -100009, %7 ]
  ret i32 %.0
}